; Function Attrs: mustprogress uwtable
define void @_ZNK6icu_758numparse4impl15PermilleMatcher6acceptERNS_13StringSegmentERNS1_12ParsedNumberE(ptr nocapture nonnull readnone align 8 %this, ptr noundef nonnull align 8 dereferenceable(17) %segment, ptr noundef nonnull align 8 dereferenceable(216) %result) unnamed_addr #0 align 2 {
entry:
  %flags = getelementptr inbounds i8, ptr %result, i64 76
  %0 = load i32, ptr %flags, align 4
  %or = or i32 %0, 4
  store i32 %or, ptr %flags, align 4
  tail call void @_ZN6icu_758numparse4impl12ParsedNumber16setCharsConsumedERKNS_13StringSegmentE(ptr noundef nonnull align 8 dereferenceable(216) %result, ptr noundef nonnull align 8 dereferenceable(17) %segment)
  ret void
}